; Function Attrs: nounwind uwtable
define ptr @l_Lean_Compiler_LCNF_Specialize_specializeApp_x3f___lambda__1___boxed(ptr noundef %0, ptr noundef %1, ptr noundef %2, ptr noundef %3, ptr noundef %4, ptr noundef %5, ptr noundef %6, ptr noundef %7, ptr noundef %8, ptr noundef %9, ptr noundef %10, ptr noundef %11, ptr noundef %12) local_unnamed_addr #0 {
  %14 = getelementptr i8, ptr %4, i64 8
  %.val = load i64, ptr %14, align 8, !tbaa !12
  %15 = ptrtoint ptr %4 to i64
  %16 = and i64 %15, 1
  %.not = icmp eq i64 %16, 0
  br i1 %.not, label %17, label %lean_dec.exit18

17:                                               ; preds = %13
  %18 = load i32, ptr %4, align 4, !tbaa !8
  %19 = icmp sgt i32 %18, 1
  br i1 %19, label %20, label %22, !prof !11

20:                                               ; preds = %17
  %21 = add nsw i32 %18, -1
  store i32 %21, ptr %4, align 4, !tbaa !8
  br label %lean_dec.exit18

22:                                               ; preds = %17
  %.not.i = icmp eq i32 %18, 0
  br i1 %.not.i, label %lean_dec.exit18, label %23

23:                                               ; preds = %22
  tail call void @lean_dec_ref_cold(ptr noundef nonnull %4) #4
  br label %lean_dec.exit18

lean_dec.exit18:                                  ; preds = %23, %22, %20, %13
  %24 = tail call ptr @l_Lean_Compiler_LCNF_Specialize_specializeApp_x3f___lambda__1(ptr noundef %0, ptr noundef %1, ptr noundef %2, ptr noundef %3, i64 noundef %.val, ptr poison, ptr poison, ptr noundef %7, ptr noundef %8, ptr noundef %9, ptr noundef %10, ptr noundef %11, ptr noundef %12)
  %25 = ptrtoint ptr %6 to i64
  %26 = and i64 %25, 1
  %.not23 = icmp eq i64 %26, 0
  br i1 %.not23, label %27, label %lean_dec.exit17

27:                                               ; preds = %lean_dec.exit18
  %28 = load i32, ptr %6, align 4, !tbaa !8
  %29 = icmp sgt i32 %28, 1
  br i1 %29, label %30, label %32, !prof !11

30:                                               ; preds = %27
  %31 = add nsw i32 %28, -1
  store i32 %31, ptr %6, align 4, !tbaa !8
  br label %lean_dec.exit17

32:                                               ; preds = %27
  %.not.i19 = icmp eq i32 %28, 0
  br i1 %.not.i19, label %lean_dec.exit17, label %33

33:                                               ; preds = %32
  tail call void @lean_dec_ref_cold(ptr noundef nonnull %6) #4
  br label %lean_dec.exit17

lean_dec.exit17:                                  ; preds = %33, %32, %30, %lean_dec.exit18
  %34 = ptrtoint ptr %5 to i64
  %35 = and i64 %34, 1
  %.not24 = icmp eq i64 %35, 0
  br i1 %.not24, label %36, label %lean_dec.exit

36:                                               ; preds = %lean_dec.exit17
  %37 = load i32, ptr %5, align 4, !tbaa !8
  %38 = icmp sgt i32 %37, 1
  br i1 %38, label %39, label %41, !prof !11

39:                                               ; preds = %36
  %40 = add nsw i32 %37, -1
  store i32 %40, ptr %5, align 4, !tbaa !8
  br label %lean_dec.exit

41:                                               ; preds = %36
  %.not.i21 = icmp eq i32 %37, 0
  br i1 %.not.i21, label %lean_dec.exit, label %42

42:                                               ; preds = %41
  tail call void @lean_dec_ref_cold(ptr noundef nonnull %5) #4
  br label %lean_dec.exit

lean_dec.exit:                                    ; preds = %42, %41, %39, %lean_dec.exit17
  ret ptr %24
}